target datalayout = "e-m:e-p270:32:32-p271:32:32-p272:64:64-i64:64-i128:128-f80:128-n8:16:32:64-S128"
target triple = "x86_64-pc-linux-gnu"

%"struct.faiss::IndexPQFastScan" = type { %"struct.faiss::IndexFastScan", %"struct.faiss::ProductQuantizer" }
%"struct.faiss::IndexFastScan" = type { %"struct.faiss::Index.base", i32, i32, i32, i32, i64, i64, i64, i64, i64, i64, %"struct.faiss::AlignedTable", ptr }
%"struct.faiss::Index.base" = type <{ ptr, i32, [4 x i8], i64, i8, i8, [2 x i8], i32, float }>
%"struct.faiss::AlignedTable" = type { %"struct.faiss::AlignedTableTightAlloc", i64 }
%"struct.faiss::AlignedTableTightAlloc" = type { ptr, i64 }
%"struct.faiss::ProductQuantizer" = type { %"struct.faiss::Quantizer", i64, i64, i64, i64, i8, i32, %"struct.faiss::ClusteringParameters", ptr, %"class.std::vector", %"class.std::vector", %"class.std::vector", %"class.std::vector" }
%"struct.faiss::Quantizer" = type { ptr, i64, i64 }
%"struct.faiss::ClusteringParameters" = type { i32, i32, i8, i8, i8, i8, i8, i32, i32, i32, i64 }
%"class.std::vector" = type { %"struct.std::_Vector_base" }
%"struct.std::_Vector_base" = type { %"struct.std::_Vector_base<float, std::allocator<float>>::_Vector_impl" }
%"struct.std::_Vector_base<float, std::allocator<float>>::_Vector_impl" = type { %"struct.std::_Vector_base<float, std::allocator<float>>::_Vector_impl_data" }
%"struct.std::_Vector_base<float, std::allocator<float>>::_Vector_impl_data" = type { ptr, ptr, ptr }

; Function Attrs: mustprogress uwtable
define void @_ZN5faiss15IndexPQFastScanC2EimmNS_10MetricTypeEi(ptr noundef nonnull align 8 dereferenceable(344) %0, i32 noundef %1, i64 noundef %2, i64 noundef %3, i32 noundef %4, i32 noundef %5) unnamed_addr #1 align 2 personality ptr @__gxx_personality_v0 {
  %7 = alloca ptr, align 8
  %8 = alloca i32, align 4
  %9 = alloca i64, align 8
  %10 = alloca i64, align 8
  %11 = alloca i32, align 4
  %12 = alloca i32, align 4
  %13 = alloca ptr, align 8
  %14 = alloca i32, align 4
  store ptr %0, ptr %7, align 8
  store i32 %1, ptr %8, align 4
  store i64 %2, ptr %9, align 8
  store i64 %3, ptr %10, align 8
  store i32 %4, ptr %11, align 4
  store i32 %5, ptr %12, align 4
  %15 = load ptr, ptr %7, align 8
  call void @_ZN5faiss13IndexFastScanC2Ev(ptr noundef nonnull align 8 dereferenceable(136) %15)
  store ptr getelementptr inbounds ({ [26 x ptr] }, ptr @_ZTVN5faiss15IndexPQFastScanE, i32 0, i32 0, i32 2), ptr %15, align 8
  %16 = getelementptr inbounds %"struct.faiss::IndexPQFastScan", ptr %15, i32 0, i32 1
  %17 = load i32, ptr %8, align 4
  %18 = sext i32 %17 to i64
  %19 = load i64, ptr %9, align 8
  %20 = load i64, ptr %10, align 8
  invoke void @_ZN5faiss16ProductQuantizerC1Emmm(ptr noundef nonnull align 8 dereferenceable(208) %16, i64 noundef %18, i64 noundef %19, i64 noundef %20)
          to label %21 unwind label %28

21:                                               ; preds = %6
  %22 = load i32, ptr %8, align 4
  %23 = load i64, ptr %9, align 8
  %24 = load i64, ptr %10, align 8
  %25 = load i32, ptr %11, align 4
  %26 = load i32, ptr %12, align 4
  invoke void @_ZN5faiss13IndexFastScan13init_fastscanEimmNS_10MetricTypeEi(ptr noundef nonnull align 8 dereferenceable(136) %15, i32 noundef %22, i64 noundef %23, i64 noundef %24, i32 noundef %25, i32 noundef %26)
          to label %27 unwind label %32

27:                                               ; preds = %21
  ret void

28:                                               ; preds = %6
  %29 = landingpad { ptr, i32 }
          cleanup
  %30 = extractvalue { ptr, i32 } %29, 0
  store ptr %30, ptr %13, align 8
  %31 = extractvalue { ptr, i32 } %29, 1
  store i32 %31, ptr %14, align 4
  br label %36

32:                                               ; preds = %21
  %33 = landingpad { ptr, i32 }
          cleanup
  %34 = extractvalue { ptr, i32 } %33, 0
  store ptr %34, ptr %13, align 8
  %35 = extractvalue { ptr, i32 } %33, 1
  store i32 %35, ptr %14, align 4
  call void @_ZN5faiss16ProductQuantizerD2Ev(ptr noundef nonnull align 8 dereferenceable(208) %16) #10
  br label %36

36:                                               ; preds = %32, %28
  call void @_ZN5faiss13IndexFastScanD2Ev(ptr noundef nonnull align 8 dereferenceable(136) %15) #10
  br label %37

37:                                               ; preds = %36
  %38 = load ptr, ptr %13, align 8
  %39 = load i32, ptr %14, align 4
  %40 = insertvalue { ptr, i32 } poison, ptr %38, 0
  %41 = insertvalue { ptr, i32 } %40, i32 %39, 1
  resume { ptr, i32 } %41
}