; Function Attrs: mustprogress uwtable
define void @_ZN5faiss15IndexPQFastScanC2EimmNS_10MetricTypeEi(ptr noundef nonnull align 8 dereferenceable(344) %0, i32 noundef %1, i64 noundef %2, i64 noundef %3, i32 noundef %4, i32 noundef %5) unnamed_addr #1 align 2 personality ptr @__gxx_personality_v0 {
  tail call void @_ZN5faiss13IndexFastScanC2Ev(ptr noundef nonnull align 8 dereferenceable(136) %0)
  store ptr getelementptr inbounds ({ [26 x ptr] }, ptr @_ZTVN5faiss15IndexPQFastScanE, i64 0, i32 0, i64 2), ptr %0, align 8
  %7 = getelementptr inbounds i8, ptr %0, i64 136
  %8 = sext i32 %1 to i64
  invoke void @_ZN5faiss16ProductQuantizerC1Emmm(ptr noundef nonnull align 8 dereferenceable(208) %7, i64 noundef %8, i64 noundef %2, i64 noundef %3)
          to label %9 unwind label %11

9:                                                ; preds = %6
  invoke void @_ZN5faiss13IndexFastScan13init_fastscanEimmNS_10MetricTypeEi(ptr noundef nonnull align 8 dereferenceable(136) %0, i32 noundef %1, i64 noundef %2, i64 noundef %3, i32 noundef %4, i32 noundef %5)
          to label %10 unwind label %13

10:                                               ; preds = %9
  ret void

11:                                               ; preds = %6
  %12 = landingpad { ptr, i32 }
          cleanup
  br label %15

13:                                               ; preds = %9
  %14 = landingpad { ptr, i32 }
          cleanup
  tail call void @_ZN5faiss16ProductQuantizerD2Ev(ptr noundef nonnull align 8 dereferenceable(208) %7) #15
  br label %15

15:                                               ; preds = %13, %11
  %.pn = phi { ptr, i32 } [ %14, %13 ], [ %12, %11 ]
  tail call void @_ZN5faiss13IndexFastScanD2Ev(ptr noundef nonnull align 8 dereferenceable(136) %0) #15
  resume { ptr, i32 } %.pn
}